target datalayout = "e-m:e-p270:32:32-p271:32:32-p272:64:64-i64:64-i128:128-f80:128-n8:16:32:64-S128"
target triple = "x86_64-unknown-linux-gnu"

%"class.icu_75::SortKeyByteSink" = type <{ %"class.icu_75::ByteSink", ptr, i32, i32, i32, [4 x i8] }>
%"class.icu_75::ByteSink" = type { ptr }
%"class.icu_75::SortKeyByteSink.base" = type <{ %"class.icu_75::ByteSink", ptr, i32, i32, i32 }>
%"class.icu_75::UObject" = type { ptr }
%"class.icu_75::UnicodeString" = type { %"class.icu_75::Replaceable", %"union.icu_75::UnicodeString::StackBufferOrFields" }
%"class.icu_75::Replaceable" = type { %"class.icu_75::UObject" }
%"union.icu_75::UnicodeString::StackBufferOrFields" = type { %struct.anon.1, [32 x i8] }
%struct.anon.1 = type { i16, i32, i32, ptr }
%struct.anon.0 = type { i16, [27 x i16] }
%"class.icu_75::(anonymous namespace)::FixedSortKeyByteSink" = type { %"class.icu_75::SortKeyByteSink.base", [4 x i8] }

@_ZTVN6icu_7515SortKeyByteSinkE = external unnamed_addr constant { [9 x ptr] }, align 8
@_ZTVN6icu_758ByteSinkE = external unnamed_addr constant { [7 x ptr] }, align 8

; Function Attrs: mustprogress nounwind uwtable
define linkonce_odr void @_ZN6icu_758ByteSinkC2Ev(ptr noundef nonnull align 8 dereferenceable(8) %this) unnamed_addr #0 comdat align 2 {
entry:
  %this.addr = alloca ptr, align 8
  store ptr %this, ptr %this.addr, align 8
  %this1 = load ptr, ptr %this.addr, align 8
  store ptr getelementptr inbounds ({ [7 x ptr] }, ptr @_ZTVN6icu_758ByteSinkE, i32 0, i32 0, i32 2), ptr %this1, align 8
  ret void
}

; Function Attrs: mustprogress uwtable
define linkonce_odr void @_ZN6icu_7515SortKeyByteSinkC2EPci(ptr noundef nonnull align 8 dereferenceable(28) %this, ptr noundef %dest, i32 noundef %destCapacity) unnamed_addr #1 comdat align 2 {
entry:
  %this.addr = alloca ptr, align 8
  %dest.addr = alloca ptr, align 8
  %destCapacity.addr = alloca i32, align 4
  store ptr %this, ptr %this.addr, align 8
  store ptr %dest, ptr %dest.addr, align 8
  store i32 %destCapacity, ptr %destCapacity.addr, align 4
  %this1 = load ptr, ptr %this.addr, align 8
  call void @_ZN6icu_758ByteSinkC2Ev(ptr noundef nonnull align 8 dereferenceable(8) %this1)
  store ptr getelementptr inbounds ({ [9 x ptr] }, ptr @_ZTVN6icu_7515SortKeyByteSinkE, i32 0, i32 0, i32 2), ptr %this1, align 8
  %buffer_ = getelementptr inbounds %"class.icu_75::SortKeyByteSink", ptr %this1, i32 0, i32 1
  %0 = load ptr, ptr %dest.addr, align 8
  store ptr %0, ptr %buffer_, align 8
  %capacity_ = getelementptr inbounds %"class.icu_75::SortKeyByteSink", ptr %this1, i32 0, i32 2
  %1 = load i32, ptr %destCapacity.addr, align 4
  store i32 %1, ptr %capacity_, align 8
  %appended_ = getelementptr inbounds %"class.icu_75::SortKeyByteSink", ptr %this1, i32 0, i32 3
  store i32 0, ptr %appended_, align 4
  %ignore_ = getelementptr inbounds %"class.icu_75::SortKeyByteSink", ptr %this1, i32 0, i32 4
  store i32 0, ptr %ignore_, align 8
  ret void
}

; Function Attrs: mustprogress nounwind uwtable
define internal void @_ZN6icu_7512_GLOBAL__N_120FixedSortKeyByteSinkD2Ev(ptr noundef nonnull align 8 dereferenceable(28) %this) unnamed_addr #0 align 2 {
entry:
  %this.addr = alloca ptr, align 8
  store ptr %this, ptr %this.addr, align 8
  %this1 = load ptr, ptr %this.addr, align 8
  call void @_ZN6icu_7515SortKeyByteSinkD2Ev(ptr noundef nonnull align 8 dereferenceable(28) %this1) #10
  ret void
}

; Function Attrs: mustprogress nounwind uwtable
define linkonce_odr noundef i32 @_ZNK6icu_7515SortKeyByteSink21NumberOfBytesAppendedEv(ptr noundef nonnull align 8 dereferenceable(28) %this) #0 comdat align 2 {
entry:
  %this.addr = alloca ptr, align 8
  store ptr %this, ptr %this.addr, align 8
  %this1 = load ptr, ptr %this.addr, align 8
  %appended_ = getelementptr inbounds %"class.icu_75::SortKeyByteSink", ptr %this1, i32 0, i32 3
  %0 = load i32, ptr %appended_, align 4
  ret i32 %0
}

; Function Attrs: mustprogress nounwind uwtable
define internal noundef signext i8 @_ZL9U_SUCCESS10UErrorCode(i32 noundef %code) #0 {
entry:
  %code.addr = alloca i32, align 4
  store i32 %code, ptr %code.addr, align 4
  %0 = load i32, ptr %code.addr, align 4
  %cmp = icmp sle i32 %0, 0
  %conv = zext i1 %cmp to i8
  ret i8 %conv
}

; Function Attrs: mustprogress uwtable
define internal void @_ZN6icu_7512_GLOBAL__N_120FixedSortKeyByteSinkC2EPci(ptr noundef nonnull align 8 dereferenceable(28) %this, ptr noundef %dest, i32 noundef %destCapacity) unnamed_addr #1 align 2 {
entry:
  %this.addr = alloca ptr, align 8
  %dest.addr = alloca ptr, align 8
  %destCapacity.addr = alloca i32, align 4
  store ptr %this, ptr %this.addr, align 8
  store ptr %dest, ptr %dest.addr, align 8
  store i32 %destCapacity, ptr %destCapacity.addr, align 4
  %this1 = load ptr, ptr %this.addr, align 8
  %0 = load ptr, ptr %dest.addr, align 8
  %1 = load i32, ptr %destCapacity.addr, align 4
  call void @_ZN6icu_7515SortKeyByteSinkC2EPci(ptr noundef nonnull align 8 dereferenceable(28) %this1, ptr noundef %0, i32 noundef %1)
  store ptr getelementptr inbounds ({ [9 x ptr] }, ptr @_ZTVN6icu_7512_GLOBAL__N_120FixedSortKeyByteSinkE, i32 0, i32 0, i32 2), ptr %this1, align 8
  ret void
}

; Function Attrs: mustprogress nounwind uwtable
define linkonce_odr noundef i32 @_ZNK6icu_7513UnicodeString14getShortLengthEv(ptr noundef nonnull align 8 dereferenceable(64) %this) #0 comdat align 2 {
entry:
  %this.addr = alloca ptr, align 8
  store ptr %this, ptr %this.addr, align 8
  %this1 = load ptr, ptr %this.addr, align 8
  %fUnion = getelementptr inbounds %"class.icu_75::UnicodeString", ptr %this1, i32 0, i32 1
  %fLengthAndFlags = getelementptr inbounds %struct.anon.1, ptr %fUnion, i32 0, i32 0
  %0 = load i16, ptr %fLengthAndFlags, align 8
  %conv = sext i16 %0 to i32
  %shr = ashr i32 %conv, 5
  ret i32 %shr
}

; Function Attrs: mustprogress nounwind uwtable
define linkonce_odr noundef signext i8 @_ZNK6icu_7513UnicodeString14hasShortLengthEv(ptr noundef nonnull align 8 dereferenceable(64) %this) #0 comdat align 2 {
entry:
  %this.addr = alloca ptr, align 8
  store ptr %this, ptr %this.addr, align 8
  %this1 = load ptr, ptr %this.addr, align 8
  %fUnion = getelementptr inbounds %"class.icu_75::UnicodeString", ptr %this1, i32 0, i32 1
  %fLengthAndFlags = getelementptr inbounds %struct.anon.1, ptr %fUnion, i32 0, i32 0
  %0 = load i16, ptr %fLengthAndFlags, align 8
  %conv = sext i16 %0 to i32
  %cmp = icmp sge i32 %conv, 0
  %conv2 = zext i1 %cmp to i8
  ret i8 %conv2
}

; Function Attrs: mustprogress uwtable
define noundef i32 @_ZNK6icu_7517RuleBasedCollator10getSortKeyEPKDsiPhi(ptr noundef nonnull align 8 dereferenceable(272) %this, ptr noundef %s, i32 noundef %length, ptr noundef %dest, i32 noundef %capacity) unnamed_addr #1 align 2 personality ptr @__gxx_personality_v0 {
entry:
  %retval = alloca i32, align 4
  %this.addr = alloca ptr, align 8
  %s.addr = alloca ptr, align 8
  %length.addr = alloca i32, align 4
  %dest.addr = alloca ptr, align 8
  %capacity.addr = alloca i32, align 4
  %noDest = alloca [1 x i8], align 1
  %sink = alloca %"class.icu_75::(anonymous namespace)::FixedSortKeyByteSink", align 8
  %errorCode = alloca i32, align 4
  %exn.slot = alloca ptr, align 8
  %ehselector.slot = alloca i32, align 4
  store ptr %this, ptr %this.addr, align 8
  store ptr %s, ptr %s.addr, align 8
  store i32 %length, ptr %length.addr, align 4
  store ptr %dest, ptr %dest.addr, align 8
  store i32 %capacity, ptr %capacity.addr, align 4
  %this1 = load ptr, ptr %this.addr, align 8
  %0 = load ptr, ptr %s.addr, align 8
  %cmp = icmp eq ptr %0, null
  br i1 %cmp, label %land.lhs.true, label %lor.lhs.false

land.lhs.true:                                    ; preds = %entry
  %1 = load i32, ptr %length.addr, align 4
  %cmp2 = icmp ne i32 %1, 0
  br i1 %cmp2, label %if.then, label %lor.lhs.false

lor.lhs.false:                                    ; preds = %land.lhs.true, %entry
  %2 = load i32, ptr %capacity.addr, align 4
  %cmp3 = icmp slt i32 %2, 0
  br i1 %cmp3, label %if.then, label %lor.lhs.false4

lor.lhs.false4:                                   ; preds = %lor.lhs.false
  %3 = load ptr, ptr %dest.addr, align 8
  %cmp5 = icmp eq ptr %3, null
  br i1 %cmp5, label %land.lhs.true6, label %if.end

land.lhs.true6:                                   ; preds = %lor.lhs.false4
  %4 = load i32, ptr %capacity.addr, align 4
  %cmp7 = icmp sgt i32 %4, 0
  br i1 %cmp7, label %if.then, label %if.end

if.then:                                          ; preds = %land.lhs.true6, %lor.lhs.false, %land.lhs.true
  store i32 0, ptr %retval, align 4
  br label %return

if.end:                                           ; preds = %land.lhs.true6, %lor.lhs.false4
  call void @llvm.memset.p0.i64(ptr align 1 %noDest, i8 0, i64 1, i1 false)
  %5 = load ptr, ptr %dest.addr, align 8
  %cmp8 = icmp eq ptr %5, null
  br i1 %cmp8, label %if.then9, label %if.end10

if.then9:                                         ; preds = %if.end
  %arraydecay = getelementptr inbounds [1 x i8], ptr %noDest, i64 0, i64 0
  store ptr %arraydecay, ptr %dest.addr, align 8
  store i32 0, ptr %capacity.addr, align 4
  br label %if.end10

if.end10:                                         ; preds = %if.then9, %if.end
  %6 = load ptr, ptr %dest.addr, align 8
  %7 = load i32, ptr %capacity.addr, align 4
  call void @_ZN6icu_7512_GLOBAL__N_120FixedSortKeyByteSinkC2EPci(ptr noundef nonnull align 8 dereferenceable(28) %sink, ptr noundef %6, i32 noundef %7)
  store i32 0, ptr %errorCode, align 4
  %8 = load ptr, ptr %s.addr, align 8
  %9 = load i32, ptr %length.addr, align 4
  invoke void @_ZNK6icu_7517RuleBasedCollator12writeSortKeyEPKDsiRNS_15SortKeyByteSinkER10UErrorCode(ptr noundef nonnull align 8 dereferenceable(272) %this1, ptr noundef %8, i32 noundef %9, ptr noundef nonnull align 8 dereferenceable(28) %sink, ptr noundef nonnull align 4 dereferenceable(4) %errorCode)
          to label %invoke.cont unwind label %lpad

invoke.cont:                                      ; preds = %if.end10
  %10 = load i32, ptr %errorCode, align 4
  %call = invoke noundef signext i8 @_ZL9U_SUCCESS10UErrorCode(i32 noundef %10)
          to label %invoke.cont11 unwind label %lpad

invoke.cont11:                                    ; preds = %invoke.cont
  %tobool = icmp ne i8 %call, 0
  br i1 %tobool, label %cond.true, label %cond.false

cond.true:                                        ; preds = %invoke.cont11
  %call13 = invoke noundef i32 @_ZNK6icu_7515SortKeyByteSink21NumberOfBytesAppendedEv(ptr noundef nonnull align 8 dereferenceable(28) %sink)
          to label %invoke.cont12 unwind label %lpad

invoke.cont12:                                    ; preds = %cond.true
  br label %cond.end

cond.false:                                       ; preds = %invoke.cont11
  br label %cond.end

cond.end:                                         ; preds = %cond.false, %invoke.cont12
  %cond = phi i32 [ %call13, %invoke.cont12 ], [ 0, %cond.false ]
  store i32 %cond, ptr %retval, align 4
  call void @_ZN6icu_7512_GLOBAL__N_120FixedSortKeyByteSinkD2Ev(ptr noundef nonnull align 8 dereferenceable(28) %sink) #10
  br label %return

lpad:                                             ; preds = %cond.true, %invoke.cont, %if.end10
  %11 = landingpad { ptr, i32 }
          cleanup
  %12 = extractvalue { ptr, i32 } %11, 0
  store ptr %12, ptr %exn.slot, align 8
  %13 = extractvalue { ptr, i32 } %11, 1
  store i32 %13, ptr %ehselector.slot, align 4
  call void @_ZN6icu_7512_GLOBAL__N_120FixedSortKeyByteSinkD2Ev(ptr noundef nonnull align 8 dereferenceable(28) %sink) #10
  br label %eh.resume

return:                                           ; preds = %cond.end, %if.then
  %14 = load i32, ptr %retval, align 4
  ret i32 %14

eh.resume:                                        ; preds = %lpad
  %exn = load ptr, ptr %exn.slot, align 8
  %sel = load i32, ptr %ehselector.slot, align 4
  %lpad.val = insertvalue { ptr, i32 } poison, ptr %exn, 0
  %lpad.val14 = insertvalue { ptr, i32 } %lpad.val, i32 %sel, 1
  resume { ptr, i32 } %lpad.val14
}

; Function Attrs: mustprogress uwtable
define linkonce_odr noundef i32 @_ZNK6icu_7513UnicodeString6lengthEv(ptr noundef nonnull align 8 dereferenceable(64) %this) #1 comdat align 2 {
entry:
  %this.addr = alloca ptr, align 8
  store ptr %this, ptr %this.addr, align 8
  %this1 = load ptr, ptr %this.addr, align 8
  %call = call noundef signext i8 @_ZNK6icu_7513UnicodeString14hasShortLengthEv(ptr noundef nonnull align 8 dereferenceable(64) %this1)
  %tobool = icmp ne i8 %call, 0
  br i1 %tobool, label %cond.true, label %cond.false

cond.true:                                        ; preds = %entry
  %call2 = call noundef i32 @_ZNK6icu_7513UnicodeString14getShortLengthEv(ptr noundef nonnull align 8 dereferenceable(64) %this1)
  br label %cond.end

cond.false:                                       ; preds = %entry
  %fUnion = getelementptr inbounds %"class.icu_75::UnicodeString", ptr %this1, i32 0, i32 1
  %fLength = getelementptr inbounds %struct.anon.1, ptr %fUnion, i32 0, i32 1
  %0 = load i32, ptr %fLength, align 4
  br label %cond.end

cond.end:                                         ; preds = %cond.false, %cond.true
  %cond = phi i32 [ %call2, %cond.true ], [ %0, %cond.false ]
  ret i32 %cond
}

; Function Attrs: mustprogress nounwind uwtable
define linkonce_odr noundef ptr @_ZNK6icu_7513UnicodeString9getBufferEv(ptr noundef nonnull align 8 dereferenceable(64) %this) #0 comdat align 2 {
entry:
  %retval = alloca ptr, align 8
  %this.addr = alloca ptr, align 8
  store ptr %this, ptr %this.addr, align 8
  %this1 = load ptr, ptr %this.addr, align 8
  %fUnion = getelementptr inbounds %"class.icu_75::UnicodeString", ptr %this1, i32 0, i32 1
  %fLengthAndFlags = getelementptr inbounds %struct.anon.1, ptr %fUnion, i32 0, i32 0
  %0 = load i16, ptr %fLengthAndFlags, align 8
  %conv = sext i16 %0 to i32
  %and = and i32 %conv, 17
  %tobool = icmp ne i32 %and, 0
  br i1 %tobool, label %if.then, label %if.else

if.then:                                          ; preds = %entry
  store ptr null, ptr %retval, align 8
  br label %return

if.else:                                          ; preds = %entry
  %fUnion2 = getelementptr inbounds %"class.icu_75::UnicodeString", ptr %this1, i32 0, i32 1
  %fLengthAndFlags3 = getelementptr inbounds %struct.anon.1, ptr %fUnion2, i32 0, i32 0
  %1 = load i16, ptr %fLengthAndFlags3, align 8
  %conv4 = sext i16 %1 to i32
  %and5 = and i32 %conv4, 2
  %tobool6 = icmp ne i32 %and5, 0
  br i1 %tobool6, label %if.then7, label %if.else9

if.then7:                                         ; preds = %if.else
  %fUnion8 = getelementptr inbounds %"class.icu_75::UnicodeString", ptr %this1, i32 0, i32 1
  %fBuffer = getelementptr inbounds %struct.anon.0, ptr %fUnion8, i32 0, i32 1
  %arraydecay = getelementptr inbounds [27 x i16], ptr %fBuffer, i64 0, i64 0
  store ptr %arraydecay, ptr %retval, align 8
  br label %return

if.else9:                                         ; preds = %if.else
  %fUnion10 = getelementptr inbounds %"class.icu_75::UnicodeString", ptr %this1, i32 0, i32 1
  %fArray = getelementptr inbounds %struct.anon.1, ptr %fUnion10, i32 0, i32 3
  %2 = load ptr, ptr %fArray, align 8
  store ptr %2, ptr %retval, align 8
  br label %return

return:                                           ; preds = %if.else9, %if.then7, %if.then
  %3 = load ptr, ptr %retval, align 8
  ret ptr %3
}

; Function Attrs: mustprogress uwtable
define noundef i32 @_ZNK6icu_7517RuleBasedCollator10getSortKeyERKNS_13UnicodeStringEPhi(ptr noundef nonnull align 8 dereferenceable(272) %this, ptr noundef nonnull align 8 dereferenceable(64) %s, ptr noundef %dest, i32 noundef %capacity) unnamed_addr #1 align 2 {
entry:
  %this.addr = alloca ptr, align 8
  %s.addr = alloca ptr, align 8
  %dest.addr = alloca ptr, align 8
  %capacity.addr = alloca i32, align 4
  store ptr %this, ptr %this.addr, align 8
  store ptr %s, ptr %s.addr, align 8
  store ptr %dest, ptr %dest.addr, align 8
  store i32 %capacity, ptr %capacity.addr, align 4
  %this1 = load ptr, ptr %this.addr, align 8
  %0 = load ptr, ptr %s.addr, align 8
  %call = call noundef ptr @_ZNK6icu_7513UnicodeString9getBufferEv(ptr noundef nonnull align 8 dereferenceable(64) %0)
  %1 = load ptr, ptr %s.addr, align 8
  %call2 = call noundef i32 @_ZNK6icu_7513UnicodeString6lengthEv(ptr noundef nonnull align 8 dereferenceable(64) %1)
  %2 = load ptr, ptr %dest.addr, align 8
  %3 = load i32, ptr %capacity.addr, align 4
  %call3 = call noundef i32 @_ZNK6icu_7517RuleBasedCollator10getSortKeyEPKDsiPhi(ptr noundef nonnull align 8 dereferenceable(272) %this1, ptr noundef %call, i32 noundef %call2, ptr noundef %2, i32 noundef %3)
  ret i32 %call3
}