; Function Attrs: mustprogress uwtable
define noundef i32 @_ZNK6icu_7517RuleBasedCollator10getSortKeyERKNS_13UnicodeStringEPhi(ptr nocapture noundef nonnull readonly align 8 dereferenceable(272) %this, ptr noundef nonnull align 8 dereferenceable(64) %s, ptr noundef %dest, i32 noundef %capacity) unnamed_addr #1 align 2 personality ptr @__gxx_personality_v0 {
entry:
  %noDest.i = alloca [1 x i8], align 1
  %sink.i = alloca %"class.icu_75::(anonymous namespace)::FixedSortKeyByteSink", align 8
  %errorCode.i = alloca i32, align 4
  %fUnion.i = getelementptr inbounds i8, ptr %s, i64 8
  %0 = load i16, ptr %fUnion.i, align 8
  %conv1.i = zext i16 %0 to i32
  %and.i = and i32 %conv1.i, 17
  %tobool.not.i = icmp eq i32 %and.i, 0
  br i1 %tobool.not.i, label %if.else.i, label %_ZNK6icu_7513UnicodeString9getBufferEv.exit

if.else.i:                                        ; preds = %entry
  %and5.i = and i32 %conv1.i, 2
  %tobool6.not.i = icmp eq i32 %and5.i, 0
  br i1 %tobool6.not.i, label %if.else9.i, label %if.then7.i

if.then7.i:                                       ; preds = %if.else.i
  %fBuffer.i = getelementptr inbounds i8, ptr %s, i64 10
  br label %_ZNK6icu_7513UnicodeString9getBufferEv.exit

if.else9.i:                                       ; preds = %if.else.i
  %fArray.i = getelementptr inbounds i8, ptr %s, i64 24
  %1 = load ptr, ptr %fArray.i, align 8
  br label %_ZNK6icu_7513UnicodeString9getBufferEv.exit

_ZNK6icu_7513UnicodeString9getBufferEv.exit:      ; preds = %entry, %if.then7.i, %if.else9.i
  %retval.0.i = phi ptr [ %fBuffer.i, %if.then7.i ], [ %1, %if.else9.i ], [ null, %entry ]
  %cmp.i.i = icmp slt i16 %0, 0
  %2 = ashr i16 %0, 5
  %shr.i.i = sext i16 %2 to i32
  %fLength.i = getelementptr inbounds i8, ptr %s, i64 12
  %3 = load i32, ptr %fLength.i, align 4
  %cond.i = select i1 %cmp.i.i, i32 %3, i32 %shr.i.i
  call void @llvm.lifetime.start.p0(i64 1, ptr nonnull %noDest.i)
  call void @llvm.lifetime.start.p0(i64 32, ptr nonnull %sink.i)
  call void @llvm.lifetime.start.p0(i64 4, ptr nonnull %errorCode.i)
  %cmp.i = icmp eq ptr %retval.0.i, null
  %cmp2.i = icmp ne i32 %cond.i, 0
  %or.cond.i = and i1 %cmp.i, %cmp2.i
  %cmp3.i = icmp slt i32 %capacity, 0
  %or.cond1.i = or i1 %cmp3.i, %or.cond.i
  br i1 %or.cond1.i, label %_ZNK6icu_7517RuleBasedCollator10getSortKeyEPKDsiPhi.exit, label %lor.lhs.false4.i

lor.lhs.false4.i:                                 ; preds = %_ZNK6icu_7513UnicodeString9getBufferEv.exit
  %cmp5.i = icmp eq ptr %dest, null
  %cmp7.i = icmp ne i32 %capacity, 0
  %or.cond2.i = and i1 %cmp5.i, %cmp7.i
  br i1 %or.cond2.i, label %_ZNK6icu_7517RuleBasedCollator10getSortKeyEPKDsiPhi.exit, label %if.end.i

if.end.i:                                         ; preds = %lor.lhs.false4.i
  store i8 0, ptr %noDest.i, align 1
  %spec.select.i = select i1 %cmp5.i, i32 0, i32 %capacity
  %spec.select9.i = select i1 %cmp5.i, ptr %noDest.i, ptr %dest
  %buffer_.i.i.i = getelementptr inbounds i8, ptr %sink.i, i64 8
  store ptr %spec.select9.i, ptr %buffer_.i.i.i, align 8
  %capacity_.i.i.i = getelementptr inbounds i8, ptr %sink.i, i64 16
  store i32 %spec.select.i, ptr %capacity_.i.i.i, align 8
  %appended_.i.i.i = getelementptr inbounds i8, ptr %sink.i, i64 20
  store i32 0, ptr %appended_.i.i.i, align 4
  %ignore_.i.i.i = getelementptr inbounds i8, ptr %sink.i, i64 24
  store i32 0, ptr %ignore_.i.i.i, align 8
  store ptr getelementptr inbounds ({ [9 x ptr] }, ptr @_ZTVN6icu_7512_GLOBAL__N_120FixedSortKeyByteSinkE, i64 0, i32 0, i64 2), ptr %sink.i, align 8
  store i32 0, ptr %errorCode.i, align 4
  invoke void @_ZNK6icu_7517RuleBasedCollator12writeSortKeyEPKDsiRNS_15SortKeyByteSinkER10UErrorCode(ptr noundef nonnull align 8 dereferenceable(272) %this, ptr noundef %retval.0.i, i32 noundef %cond.i, ptr noundef nonnull align 8 dereferenceable(28) %sink.i, ptr noundef nonnull align 4 dereferenceable(4) %errorCode.i)
          to label %invoke.cont.i unwind label %lpad.i

invoke.cont.i:                                    ; preds = %if.end.i
  %4 = load i32, ptr %errorCode.i, align 4
  %cmp.i.i2 = icmp sgt i32 %4, 0
  %5 = load i32, ptr %appended_.i.i.i, align 4
  %spec.select10.i = select i1 %cmp.i.i2, i32 0, i32 %5
  call void @_ZN6icu_7515SortKeyByteSinkD2Ev(ptr noundef nonnull align 8 dereferenceable(28) %sink.i) #17
  br label %_ZNK6icu_7517RuleBasedCollator10getSortKeyEPKDsiPhi.exit

lpad.i:                                           ; preds = %if.end.i
  %6 = landingpad { ptr, i32 }
          cleanup
  call void @_ZN6icu_7515SortKeyByteSinkD2Ev(ptr noundef nonnull align 8 dereferenceable(28) %sink.i) #17
  resume { ptr, i32 } %6

_ZNK6icu_7517RuleBasedCollator10getSortKeyEPKDsiPhi.exit: ; preds = %_ZNK6icu_7513UnicodeString9getBufferEv.exit, %lor.lhs.false4.i, %invoke.cont.i
  %retval.0.i3 = phi i32 [ %spec.select10.i, %invoke.cont.i ], [ 0, %lor.lhs.false4.i ], [ 0, %_ZNK6icu_7513UnicodeString9getBufferEv.exit ]
  call void @llvm.lifetime.end.p0(i64 1, ptr nonnull %noDest.i)
  call void @llvm.lifetime.end.p0(i64 32, ptr nonnull %sink.i)
  call void @llvm.lifetime.end.p0(i64 4, ptr nonnull %errorCode.i)
  ret i32 %retval.0.i3
}